; Function Attrs: mustprogress uwtable
define hidden void @_ZN2cv8tinyxml210XMLPrinter10PushHeaderEbb(ptr noundef nonnull align 8 dereferenceable(312) %0, i1 noundef zeroext %1, i1 noundef zeroext %2) local_unnamed_addr #4 align 2 {
  br i1 %1, label %4, label %5

4:                                                ; preds = %3
  tail call void (ptr, ptr, ...) @_ZN2cv8tinyxml210XMLPrinter5PrintEPKcz(ptr noundef nonnull align 8 dereferenceable(312) %0, ptr noundef nonnull @.str.20, ptr noundef nonnull @_ZZN2cv8tinyxml210XMLPrinter10PushHeaderEbbE3bom)
  br label %5

5:                                                ; preds = %4, %3
  br i1 %2, label %6, label %30

6:                                                ; preds = %5
  %7 = getelementptr inbounds nuw i8, ptr %0, i64 8
  %8 = load i8, ptr %7, align 8, !tbaa !153, !range !119, !noundef !120
  %9 = trunc nuw i8 %8 to i1
  br i1 %9, label %10, label %11

10:                                               ; preds = %6
  store i8 0, ptr %7, align 8, !tbaa !153
  tail call void (ptr, ptr, ...) @_ZN2cv8tinyxml210XMLPrinter5PrintEPKcz(ptr noundef nonnull align 8 dereferenceable(312) %0, ptr noundef nonnull @.str.16)
  br label %11

11:                                               ; preds = %10, %6
  %12 = getelementptr inbounds nuw i8, ptr %0, i64 132
  %13 = load i32, ptr %12, align 4, !tbaa !166
  %14 = icmp slt i32 %13, 0
  br i1 %14, label %15, label %_ZN2cv8tinyxml210XMLPrinter15PushDeclarationEPKc.exit

15:                                               ; preds = %11
  %16 = getelementptr inbounds nuw i8, ptr %0, i64 112
  %17 = load i8, ptr %16, align 8, !tbaa !163, !range !119, !noundef !120
  %18 = trunc nuw i8 %17 to i1
  br i1 %18, label %_ZN2cv8tinyxml210XMLPrinter15PushDeclarationEPKc.exit, label %19

19:                                               ; preds = %15
  %20 = getelementptr inbounds nuw i8, ptr %0, i64 137
  %21 = load i8, ptr %20, align 1, !tbaa !168, !range !119, !noundef !120
  %22 = trunc nuw i8 %21 to i1
  br i1 %22, label %_ZN2cv8tinyxml210XMLPrinter15PushDeclarationEPKc.exit, label %23

23:                                               ; preds = %19
  tail call void (ptr, ptr, ...) @_ZN2cv8tinyxml210XMLPrinter5PrintEPKcz(ptr noundef nonnull align 8 dereferenceable(312) %0, ptr noundef nonnull @.str.26)
  %24 = getelementptr inbounds nuw i8, ptr %0, i64 128
  %25 = load i32, ptr %24, align 8, !tbaa !165
  %26 = load ptr, ptr %0, align 8, !tbaa !39
  %27 = getelementptr inbounds nuw i8, ptr %26, i64 96
  %28 = load ptr, ptr %27, align 8
  tail call void %28(ptr noundef nonnull align 8 dereferenceable(312) %0, i32 noundef %25)
  br label %_ZN2cv8tinyxml210XMLPrinter15PushDeclarationEPKc.exit

_ZN2cv8tinyxml210XMLPrinter15PushDeclarationEPKc.exit: ; preds = %11, %15, %19, %23
  %29 = getelementptr inbounds nuw i8, ptr %0, i64 112
  store i8 0, ptr %29, align 8, !tbaa !163
  tail call void (ptr, ptr, ...) @_ZN2cv8tinyxml210XMLPrinter5PrintEPKcz(ptr noundef nonnull align 8 dereferenceable(312) %0, ptr noundef nonnull @.str.33, ptr noundef nonnull @.str.25)
  br label %30

30:                                               ; preds = %_ZN2cv8tinyxml210XMLPrinter15PushDeclarationEPKc.exit, %5
  ret void
}